target datalayout = "e-m:e-p270:32:32-p271:32:32-p272:64:64-i64:64-i128:128-f80:128-n8:16:32:64-S128"
target triple = "x86_64-pc-linux-gnu"

%struct.pos = type { [4 x [4 x i16]], [4 x i16], [4 x [4 x i8]], [4 x i32], [50 x [4 x i16]], [50 x i32], [50 x %struct.moveType], i32, i32, [4 x %struct.highCardType], [4 x %struct.highCardType] }
%struct.moveType = type { i32, i32, i32, i32 }
%struct.highCardType = type { i32, i32 }

@bitMapRank = external global [16 x i16], align 16
@_ZL9handDelta = internal constant [4 x i32] [i32 256, i32 16, i32 1, i32 0], align 16

; Function Attrs: mustprogress nounwind uwtable
define void @_Z5Make2P3posiPK8moveType(ptr noundef %0, i32 noundef %1, ptr noundef %2) #5 {
  %4 = alloca ptr, align 8
  %5 = alloca i32, align 4
  %6 = alloca ptr, align 8
  %7 = alloca i32, align 4
  %8 = alloca i32, align 4
  %9 = alloca i32, align 4
  %10 = alloca i32, align 4
  store ptr %0, ptr %4, align 8
  store i32 %1, ptr %5, align 4
  store ptr %2, ptr %6, align 8
  %11 = load ptr, ptr %4, align 8
  %12 = getelementptr inbounds nuw %struct.pos, ptr %11, i32 0, i32 5
  %13 = load i32, ptr %5, align 4
  %14 = sext i32 %13 to i64
  %15 = getelementptr inbounds [50 x i32], ptr %12, i64 0, i64 %14
  %16 = load i32, ptr %15, align 4
  store i32 %16, ptr %7, align 4
  %17 = load i32, ptr %7, align 4
  %18 = load ptr, ptr %4, align 8
  %19 = getelementptr inbounds nuw %struct.pos, ptr %18, i32 0, i32 5
  %20 = load i32, ptr %5, align 4
  %21 = sub nsw i32 %20, 1
  %22 = sext i32 %21 to i64
  %23 = getelementptr inbounds [50 x i32], ptr %19, i64 0, i64 %22
  store i32 %17, ptr %23, align 4
  %24 = load i32, ptr %7, align 4
  %25 = add nsw i32 %24, 2
  %26 = and i32 %25, 3
  store i32 %26, ptr %8, align 4
  %27 = load ptr, ptr %6, align 8
  %28 = getelementptr inbounds nuw %struct.moveType, ptr %27, i32 0, i32 0
  %29 = load i32, ptr %28, align 4
  store i32 %29, ptr %9, align 4
  %30 = load ptr, ptr %6, align 8
  %31 = getelementptr inbounds nuw %struct.moveType, ptr %30, i32 0, i32 1
  %32 = load i32, ptr %31, align 4
  store i32 %32, ptr %10, align 4
  %33 = load i32, ptr %10, align 4
  %34 = sext i32 %33 to i64
  %35 = getelementptr inbounds [16 x i16], ptr @bitMapRank, i64 0, i64 %34
  %36 = load i16, ptr %35, align 2
  %37 = zext i16 %36 to i32
  %38 = xor i32 %37, -1
  %39 = load ptr, ptr %4, align 8
  %40 = getelementptr inbounds nuw %struct.pos, ptr %39, i32 0, i32 0
  %41 = load i32, ptr %8, align 4
  %42 = sext i32 %41 to i64
  %43 = getelementptr inbounds [4 x [4 x i16]], ptr %40, i64 0, i64 %42
  %44 = load i32, ptr %9, align 4
  %45 = sext i32 %44 to i64
  %46 = getelementptr inbounds [4 x i16], ptr %43, i64 0, i64 %45
  %47 = load i16, ptr %46, align 2
  %48 = zext i16 %47 to i32
  %49 = and i32 %48, %38
  %50 = trunc i32 %49 to i16
  store i16 %50, ptr %46, align 2
  %51 = load i32, ptr %10, align 4
  %52 = sext i32 %51 to i64
  %53 = getelementptr inbounds [16 x i16], ptr @bitMapRank, i64 0, i64 %52
  %54 = load i16, ptr %53, align 2
  %55 = zext i16 %54 to i32
  %56 = load ptr, ptr %4, align 8
  %57 = getelementptr inbounds nuw %struct.pos, ptr %56, i32 0, i32 1
  %58 = load i32, ptr %9, align 4
  %59 = sext i32 %58 to i64
  %60 = getelementptr inbounds [4 x i16], ptr %57, i64 0, i64 %59
  %61 = load i16, ptr %60, align 2
  %62 = zext i16 %61 to i32
  %63 = xor i32 %62, %55
  %64 = trunc i32 %63 to i16
  store i16 %64, ptr %60, align 2
  %65 = load i32, ptr %9, align 4
  %66 = sext i32 %65 to i64
  %67 = getelementptr inbounds [4 x i32], ptr @_ZL9handDelta, i64 0, i64 %66
  %68 = load i32, ptr %67, align 4
  %69 = load ptr, ptr %4, align 8
  %70 = getelementptr inbounds nuw %struct.pos, ptr %69, i32 0, i32 3
  %71 = load i32, ptr %8, align 4
  %72 = sext i32 %71 to i64
  %73 = getelementptr inbounds [4 x i32], ptr %70, i64 0, i64 %72
  %74 = load i32, ptr %73, align 4
  %75 = sub nsw i32 %74, %68
  store i32 %75, ptr %73, align 4
  %76 = load ptr, ptr %4, align 8
  %77 = getelementptr inbounds nuw %struct.pos, ptr %76, i32 0, i32 2
  %78 = load i32, ptr %8, align 4
  %79 = sext i32 %78 to i64
  %80 = getelementptr inbounds [4 x [4 x i8]], ptr %77, i64 0, i64 %79
  %81 = load i32, ptr %9, align 4
  %82 = sext i32 %81 to i64
  %83 = getelementptr inbounds [4 x i8], ptr %80, i64 0, i64 %82
  %84 = load i8, ptr %83, align 1
  %85 = add i8 %84, -1
  store i8 %85, ptr %83, align 1
  ret void
}